; Function Attrs: nounwind uwtable
define dso_local void @pgstat_reset_slru(ptr noundef readonly captures(none) %0) local_unnamed_addr #0 {
  %2 = tail call i64 @GetCurrentTimestamp() #9
  br label %3

3:                                                ; preds = %8, %1
  %indvars.iv.i = phi i64 [ 0, %1 ], [ %indvars.iv.next.i, %8 ]
  %4 = getelementptr inbounds nuw [8 x ptr], ptr @slru_names, i64 0, i64 %indvars.iv.i
  %5 = load ptr, ptr %4, align 8
  %6 = tail call i32 @strcmp(ptr noundef nonnull dereferenceable(1) %5, ptr noundef nonnull readonly dereferenceable(1) %0) #10
  %7 = icmp eq i32 %6, 0
  br i1 %7, label %.split.loop.exit9.i, label %8

8:                                                ; preds = %3
  %indvars.iv.next.i = add nuw nsw i64 %indvars.iv.i, 1
  %exitcond.not.i = icmp eq i64 %indvars.iv.next.i, 8
  br i1 %exitcond.not.i, label %pgstat_get_slru_index.exit, label %3, !llvm.loop !4

.split.loop.exit9.i:                              ; preds = %3
  %sext = shl i64 %indvars.iv.i, 32
  %9 = ashr exact i64 %sext, 32
  br label %pgstat_get_slru_index.exit

pgstat_get_slru_index.exit:                       ; preds = %8, %.split.loop.exit9.i
  %.05.i = phi i64 [ %9, %.split.loop.exit9.i ], [ 7, %8 ]
  %10 = load ptr, ptr @pgStatLocal, align 8
  %11 = getelementptr inbounds nuw i8, ptr %10, i64 49856
  %12 = tail call zeroext i1 @LWLockAcquire(ptr noundef nonnull %11, i32 noundef 0) #9
  %13 = getelementptr inbounds nuw i8, ptr %10, i64 49872
  %14 = getelementptr inbounds [8 x %struct.PgStat_SLRUStats], ptr %13, i64 0, i64 %.05.i
  tail call void @llvm.memset.p0.i64(ptr noundef nonnull align 8 dereferenceable(64) %14, i8 0, i64 56, i1 false)
  %15 = getelementptr inbounds nuw i8, ptr %14, i64 56
  store i64 %2, ptr %15, align 8
  tail call void @LWLockRelease(ptr noundef nonnull %11) #9
  ret void
}